target datalayout = "e-m:e-p270:32:32-p271:32:32-p272:64:64-i64:64-i128:128-f80:128-n8:16:32:64-S128"
target triple = "x86_64-pc-linux-gnu"

; Function Attrs: inlinehint nounwind uwtable
define internal i32 @Abc_InfoHasBit(ptr noundef %0, i32 noundef %1) #3 {
  %3 = alloca ptr, align 8
  %4 = alloca i32, align 4
  store ptr %0, ptr %3, align 8, !tbaa !78
  store i32 %1, ptr %4, align 4, !tbaa !10
  %5 = load ptr, ptr %3, align 8, !tbaa !78
  %6 = load i32, ptr %4, align 4, !tbaa !10
  %7 = ashr i32 %6, 5
  %8 = sext i32 %7 to i64
  %9 = getelementptr inbounds i32, ptr %5, i64 %8
  %10 = load i32, ptr %9, align 4, !tbaa !10
  %11 = load i32, ptr %4, align 4, !tbaa !10
  %12 = and i32 %11, 31
  %13 = shl i32 1, %12
  %14 = and i32 %10, %13
  %15 = icmp ugt i32 %14, 0
  %16 = zext i1 %15 to i32
  ret i32 %16
}

; Function Attrs: nounwind uwtable
define i32 @Mio_LibGateSimulateOne(ptr noundef %0, ptr noundef %1) #0 {
  %3 = alloca ptr, align 8
  %4 = alloca ptr, align 8
  %5 = alloca i32, align 4
  %6 = alloca i32, align 4
  %7 = alloca i32, align 4
  store ptr %0, ptr %3, align 8, !tbaa !35
  store ptr %1, ptr %4, align 8, !tbaa !78
  call void @llvm.lifetime.start.p0(i64 4, ptr %5) #14
  %8 = load ptr, ptr %3, align 8, !tbaa !35
  %9 = call i32 @Mio_GateReadPinNum(ptr noundef %8)
  store i32 %9, ptr %5, align 4, !tbaa !10
  call void @llvm.lifetime.start.p0(i64 4, ptr %6) #14
  call void @llvm.lifetime.start.p0(i64 4, ptr %7) #14
  store i32 0, ptr %7, align 4, !tbaa !10
  store i32 0, ptr %6, align 4, !tbaa !10
  br label %10

10:                                               ; preds = %27, %2
  %11 = load i32, ptr %6, align 4, !tbaa !10
  %12 = load i32, ptr %5, align 4, !tbaa !10
  %13 = icmp slt i32 %11, %12
  br i1 %13, label %14, label %30

14:                                               ; preds = %10
  %15 = load ptr, ptr %4, align 8, !tbaa !78
  %16 = load i32, ptr %6, align 4, !tbaa !10
  %17 = sext i32 %16 to i64
  %18 = getelementptr inbounds i32, ptr %15, i64 %17
  %19 = load i32, ptr %18, align 4, !tbaa !10
  %20 = icmp ne i32 %19, 0
  br i1 %20, label %21, label %26

21:                                               ; preds = %14
  %22 = load i32, ptr %6, align 4, !tbaa !10
  %23 = shl i32 1, %22
  %24 = load i32, ptr %7, align 4, !tbaa !10
  %25 = or i32 %24, %23
  store i32 %25, ptr %7, align 4, !tbaa !10
  br label %26

26:                                               ; preds = %21, %14
  br label %27

27:                                               ; preds = %26
  %28 = load i32, ptr %6, align 4, !tbaa !10
  %29 = add nsw i32 %28, 1
  store i32 %29, ptr %6, align 4, !tbaa !10
  br label %10, !llvm.loop !129

30:                                               ; preds = %10
  %31 = load ptr, ptr %3, align 8, !tbaa !35
  %32 = call ptr @Mio_GateReadTruthP(ptr noundef %31)
  %33 = load i32, ptr %7, align 4, !tbaa !10
  %34 = call i32 @Abc_InfoHasBit(ptr noundef %32, i32 noundef %33)
  call void @llvm.lifetime.end.p0(i64 4, ptr %7) #14
  call void @llvm.lifetime.end.p0(i64 4, ptr %6) #14
  call void @llvm.lifetime.end.p0(i64 4, ptr %5) #14
  ret i32 %34
}