; Function Attrs: nounwind uwtable
define range(i32 0, 2) i32 @Mio_LibGateSimulateOne(ptr noundef %0, ptr noundef readonly captures(none) %1) local_unnamed_addr #0 {
  %3 = tail call i32 @Mio_GateReadPinNum(ptr noundef %0) #32
  %4 = icmp sgt i32 %3, 0
  br i1 %4, label %.lr.ph.preheader, label %._crit_edge

.lr.ph.preheader:                                 ; preds = %2
  %wide.trip.count = zext nneg i32 %3 to i64
  br label %.lr.ph

.lr.ph:                                           ; preds = %.lr.ph.preheader, %.lr.ph
  %indvars.iv = phi i64 [ 0, %.lr.ph.preheader ], [ %indvars.iv.next, %.lr.ph ]
  %.011 = phi i32 [ 0, %.lr.ph.preheader ], [ %.1, %.lr.ph ]
  %5 = getelementptr inbounds nuw i32, ptr %1, i64 %indvars.iv
  %6 = load i32, ptr %5, align 4, !tbaa !34
  %.not = icmp eq i32 %6, 0
  %7 = trunc nuw nsw i64 %indvars.iv to i32
  %8 = shl nuw i32 1, %7
  %9 = select i1 %.not, i32 0, i32 %8
  %.1 = or i32 %9, %.011
  %indvars.iv.next = add nuw nsw i64 %indvars.iv, 1
  %exitcond.not = icmp eq i64 %indvars.iv.next, %wide.trip.count
  br i1 %exitcond.not, label %._crit_edge, label %.lr.ph, !llvm.loop !111

._crit_edge:                                      ; preds = %.lr.ph, %2
  %.0.lcssa = phi i32 [ 0, %2 ], [ %.1, %.lr.ph ]
  %10 = tail call ptr @Mio_GateReadTruthP(ptr noundef %0) #32
  %11 = ashr i32 %.0.lcssa, 5
  %12 = sext i32 %11 to i64
  %13 = getelementptr inbounds i32, ptr %10, i64 %12
  %14 = load i32, ptr %13, align 4, !tbaa !34
  %15 = and i32 %.0.lcssa, 31
  %16 = lshr i32 %14, %15
  %17 = and i32 %16, 1
  ret i32 %17
}